target datalayout = "e-m:e-p270:32:32-p271:32:32-p272:64:64-i64:64-i128:128-f80:128-n8:16:32:64-S128"
target triple = "x86_64-pc-linux-gnu"

%struct.AV1RawFrameHeader = type { i8, i8, i32, i32, i8, i8, i8, i8, i8, i8, i8, i32, i8, i8, i8, [32 x i32], i8, i16, i16, i8, i8, i8, i16, i16, [7 x i8], i8, i8, [8 x i8], i8, i8, i8, [7 x i8], [7 x i32], i8, i8, i8, i8, i8, i8, i8, i8, i8, [64 x i8], [64 x i8], [64 x i8], [64 x i8], i16, i8, i16, i16, i8, i8, i8, i8, i8, i8, i8, i8, i8, i8, i8, i8, i8, i8, i8, [8 x [8 x i8]], [8 x [8 x i16]], i8, i8, i8, i8, i8, [4 x i8], i8, i8, i8, [8 x i8], [8 x i8], [2 x i8], [2 x i8], i8, i8, [8 x i8], [8 x i8], [8 x i8], [8 x i8], [3 x i8], i8, i8, i8, i8, i8, i8, i8, [8 x i8], [8 x i8], [8 x i8], [8 x [6 x i32]], %struct.AV1RawFilmGrainParams }
%struct.AV1RawFilmGrainParams = type { i8, i16, i8, i8, i8, [14 x i8], [14 x i8], i8, i8, [10 x i8], [10 x i8], i8, [10 x i8], [10 x i8], i8, i8, [24 x i8], [25 x i8], [25 x i8], i8, i8, i8, i8, i16, i8, i8, i16, i8, i8 }

@.str.151 = private unnamed_addr constant [21 x i8] c"is_filter_switchable\00", align 1
@.str.152 = private unnamed_addr constant [21 x i8] c"interpolation_filter\00", align 1

; Function Attrs: nounwind uwtable
define internal i32 @cbs_av1_read_interpolation_filter(ptr noundef %0, ptr noundef %1, ptr noundef %2) #0 {
  %4 = alloca i32, align 4
  %5 = alloca ptr, align 8
  %6 = alloca ptr, align 8
  %7 = alloca ptr, align 8
  %8 = alloca i32, align 4
  %9 = alloca i32, align 4
  %10 = alloca i32, align 4
  %11 = alloca i32, align 4
  store ptr %0, ptr %5, align 8, !tbaa !4
  store ptr %1, ptr %6, align 8, !tbaa !103
  store ptr %2, ptr %7, align 8, !tbaa !159
  call void @llvm.lifetime.start.p0(i64 4, ptr %8) #8
  br label %12

12:                                               ; preds = %3
  call void @llvm.lifetime.start.p0(i64 4, ptr %9) #8
  br label %13

13:                                               ; preds = %12
  %14 = load ptr, ptr %5, align 8, !tbaa !4
  %15 = load ptr, ptr %6, align 8, !tbaa !103
  %16 = call i32 @ff_cbs_read_simple_unsigned(ptr noundef %14, ptr noundef %15, i32 noundef 1, ptr noundef @.str.151, ptr noundef %9)
  store i32 %16, ptr %8, align 4, !tbaa !11
  %17 = load i32, ptr %8, align 4, !tbaa !11
  %18 = icmp slt i32 %17, 0
  br i1 %18, label %19, label %21

19:                                               ; preds = %13
  %20 = load i32, ptr %8, align 4, !tbaa !11
  store i32 %20, ptr %4, align 4
  store i32 1, ptr %10, align 4
  br label %28

21:                                               ; preds = %13
  br label %22

22:                                               ; preds = %21
  br label %23

23:                                               ; preds = %22
  %24 = load i32, ptr %9, align 4, !tbaa !11
  %25 = trunc i32 %24 to i8
  %26 = load ptr, ptr %7, align 8, !tbaa !159
  %27 = getelementptr inbounds nuw %struct.AV1RawFrameHeader, ptr %26, i32 0, i32 34
  store i8 %25, ptr %27, align 1, !tbaa !309
  store i32 0, ptr %10, align 4
  br label %28

28:                                               ; preds = %23, %19
  call void @llvm.lifetime.end.p0(i64 4, ptr %9) #8
  %29 = load i32, ptr %10, align 4
  switch i32 %29, label %66 [
    i32 0, label %30
  ]

30:                                               ; preds = %28
  br label %31

31:                                               ; preds = %30
  br label %32

32:                                               ; preds = %31
  %33 = load ptr, ptr %7, align 8, !tbaa !159
  %34 = getelementptr inbounds nuw %struct.AV1RawFrameHeader, ptr %33, i32 0, i32 34
  %35 = load i8, ptr %34, align 1, !tbaa !309
  %36 = icmp ne i8 %35, 0
  br i1 %36, label %37, label %43

37:                                               ; preds = %32
  br label %38

38:                                               ; preds = %37
  %39 = load ptr, ptr %7, align 8, !tbaa !159
  %40 = getelementptr inbounds nuw %struct.AV1RawFrameHeader, ptr %39, i32 0, i32 35
  store i8 4, ptr %40, align 2, !tbaa !310
  br label %41

41:                                               ; preds = %38
  br label %42

42:                                               ; preds = %41
  br label %65

43:                                               ; preds = %32
  br label %44

44:                                               ; preds = %43
  call void @llvm.lifetime.start.p0(i64 4, ptr %11) #8
  br label %45

45:                                               ; preds = %44
  %46 = load ptr, ptr %5, align 8, !tbaa !4
  %47 = load ptr, ptr %6, align 8, !tbaa !103
  %48 = call i32 @ff_cbs_read_simple_unsigned(ptr noundef %46, ptr noundef %47, i32 noundef 2, ptr noundef @.str.152, ptr noundef %11)
  store i32 %48, ptr %8, align 4, !tbaa !11
  %49 = load i32, ptr %8, align 4, !tbaa !11
  %50 = icmp slt i32 %49, 0
  br i1 %50, label %51, label %53

51:                                               ; preds = %45
  %52 = load i32, ptr %8, align 4, !tbaa !11
  store i32 %52, ptr %4, align 4
  store i32 1, ptr %10, align 4
  br label %60

53:                                               ; preds = %45
  br label %54

54:                                               ; preds = %53
  br label %55

55:                                               ; preds = %54
  %56 = load i32, ptr %11, align 4, !tbaa !11
  %57 = trunc i32 %56 to i8
  %58 = load ptr, ptr %7, align 8, !tbaa !159
  %59 = getelementptr inbounds nuw %struct.AV1RawFrameHeader, ptr %58, i32 0, i32 35
  store i8 %57, ptr %59, align 2, !tbaa !310
  store i32 0, ptr %10, align 4
  br label %60

60:                                               ; preds = %55, %51
  call void @llvm.lifetime.end.p0(i64 4, ptr %11) #8
  %61 = load i32, ptr %10, align 4
  switch i32 %61, label %66 [
    i32 0, label %62
  ]

62:                                               ; preds = %60
  br label %63

63:                                               ; preds = %62
  br label %64

64:                                               ; preds = %63
  br label %65

65:                                               ; preds = %64, %42
  store i32 0, ptr %4, align 4
  store i32 1, ptr %10, align 4
  br label %66

66:                                               ; preds = %65, %60, %28
  call void @llvm.lifetime.end.p0(i64 4, ptr %8) #8
  %67 = load i32, ptr %4, align 4
  ret i32 %67
}