; Function Attrs: nounwind uwtable
define internal fastcc range(i32 -2147483648, 1) i32 @cbs_av1_read_interpolation_filter(ptr noundef %0, ptr noundef nonnull %1, ptr noundef writeonly captures(none) %2) unnamed_addr #0 {
  %4 = alloca i32, align 4
  %5 = alloca i32, align 4
  call void @llvm.lifetime.start.p0(i64 4, ptr nonnull %4) #8
  %6 = call i32 @ff_cbs_read_simple_unsigned(ptr noundef %0, ptr noundef nonnull %1, i32 noundef 1, ptr noundef nonnull @.str.151, ptr noundef nonnull %4) #8
  %7 = icmp sgt i32 %6, -1
  br i1 %7, label %8, label %.critedge

8:                                                ; preds = %3
  %9 = load i32, ptr %4, align 4, !tbaa !69
  %10 = trunc i32 %9 to i8
  %11 = getelementptr inbounds nuw i8, ptr %2, i64 229
  store i8 %10, ptr %11, align 1, !tbaa !327
  call void @llvm.lifetime.end.p0(i64 4, ptr nonnull %4) #8
  %.not = icmp eq i8 %10, 0
  br i1 %.not, label %14, label %12

12:                                               ; preds = %8
  %13 = getelementptr inbounds nuw i8, ptr %2, i64 230
  store i8 4, ptr %13, align 2, !tbaa !328
  br label %21

14:                                               ; preds = %8
  call void @llvm.lifetime.start.p0(i64 4, ptr nonnull %5) #8
  %15 = call i32 @ff_cbs_read_simple_unsigned(ptr noundef %0, ptr noundef nonnull %1, i32 noundef 2, ptr noundef nonnull @.str.152, ptr noundef nonnull %5) #8
  %16 = icmp sgt i32 %15, -1
  br i1 %16, label %.thread, label %20

.thread:                                          ; preds = %14
  %17 = load i32, ptr %5, align 4, !tbaa !69
  %18 = trunc i32 %17 to i8
  %19 = getelementptr inbounds nuw i8, ptr %2, i64 230
  store i8 %18, ptr %19, align 2, !tbaa !328
  call void @llvm.lifetime.end.p0(i64 4, ptr nonnull %5) #8
  br label %21

20:                                               ; preds = %14
  call void @llvm.lifetime.end.p0(i64 4, ptr nonnull %5) #8
  br label %21

.critedge:                                        ; preds = %3
  call void @llvm.lifetime.end.p0(i64 4, ptr nonnull %4) #8
  br label %21

21:                                               ; preds = %12, %.thread, %20, %.critedge
  %.116 = phi i32 [ %15, %20 ], [ %6, %.critedge ], [ 0, %.thread ], [ 0, %12 ]
  ret i32 %.116
}